; Function Attrs: mustprogress nofree norecurse nosync nounwind willreturn memory(read, inaccessiblemem: none) uwtable
define { i64, ptr } @_ZNK9grpc_core12EvaluateArgs13GetCommonNameEv(ptr noundef nonnull readonly align 8 captures(none) dereferenceable(16) %0) local_unnamed_addr #6 align 2 {
  %2 = getelementptr inbounds nuw i8, ptr %0, i64 8
  %3 = load ptr, ptr %2, align 8, !tbaa !52
  %4 = icmp eq ptr %3, null
  br i1 %4, label %7, label %5

5:                                                ; preds = %1
  %6 = getelementptr inbounds nuw i8, ptr %3, i64 80
  %.sroa.0.0.copyload = load i64, ptr %6, align 8, !tbaa !17
  %.sroa.3.0..sroa_idx = getelementptr inbounds nuw i8, ptr %3, i64 88
  %.sroa.3.0.copyload = load ptr, ptr %.sroa.3.0..sroa_idx, align 8, !tbaa !18
  br label %7

7:                                                ; preds = %1, %5
  %.sroa.3.0 = phi ptr [ %.sroa.3.0.copyload, %5 ], [ @.str.7, %1 ]
  %.sroa.0.0 = phi i64 [ %.sroa.0.0.copyload, %5 ], [ 0, %1 ]
  %.fca.0.insert = insertvalue { i64, ptr } poison, i64 %.sroa.0.0, 0
  %.fca.1.insert = insertvalue { i64, ptr } %.fca.0.insert, ptr %.sroa.3.0, 1
  ret { i64, ptr } %.fca.1.insert
}